; Function Attrs: mustprogress nounwind uwtable
define void @_ZN3nix11AutoCloseFDD2Ev(ptr noundef nonnull align 4 dereferenceable(4) %0) unnamed_addr #4 align 2 personality ptr @__gxx_personality_v0 {
  %2 = load i32, ptr %0, align 4
  %.not.i = icmp eq i32 %2, -1
  br i1 %.not.i, label %_ZN3nix11AutoCloseFD5closeEv.exit, label %3

3:                                                ; preds = %1
  %4 = invoke i32 @close(i32 noundef %2)
          to label %.noexc unwind label %13

.noexc:                                           ; preds = %3
  %5 = icmp eq i32 %4, -1
  br i1 %5, label %6, label %12

6:                                                ; preds = %.noexc
  %7 = tail call ptr @__cxa_allocate_exception(i64 384) #29
  %8 = tail call ptr @__errno_location() #31
  %9 = load i32, ptr %8, align 4
  invoke void @_ZN3nix8SysErrorC2IJA28_ciEEEiDpRKT_(ptr noundef nonnull align 8 dereferenceable(380) %7, i32 noundef %9, ptr noundef nonnull align 1 dereferenceable(28) @.str.9, ptr noundef nonnull align 4 dereferenceable(4) %0)
          to label %_ZN3nix8SysErrorC2IJA28_ciEEEDpRKT_.exit unwind label %10

_ZN3nix8SysErrorC2IJA28_ciEEEDpRKT_.exit:         ; preds = %6
  invoke void @__cxa_throw(ptr nonnull %7, ptr nonnull @_ZTIN3nix8SysErrorE, ptr nonnull @_ZN3nix8SysErrorD2Ev) #30
          to label %.noexc2 unwind label %13

.noexc2:                                          ; preds = %_ZN3nix8SysErrorC2IJA28_ciEEEDpRKT_.exit
  unreachable

10:                                               ; preds = %6
  %11 = landingpad { ptr, i32 }
          catch ptr null
  tail call void @__cxa_free_exception(ptr %7) #29
  br label %.body

12:                                               ; preds = %.noexc
  store i32 -1, ptr %0, align 4
  br label %_ZN3nix11AutoCloseFD5closeEv.exit

13:                                               ; preds = %_ZN3nix8SysErrorC2IJA28_ciEEEDpRKT_.exit, %3
  %14 = landingpad { ptr, i32 }
          catch ptr null
  br label %.body

.body:                                            ; preds = %10, %13
  %eh.lpad-body = phi { ptr, i32 } [ %14, %13 ], [ %11, %10 ]
  %15 = extractvalue { ptr, i32 } %eh.lpad-body, 0
  %16 = tail call ptr @__cxa_begin_catch(ptr %15) #29
  invoke void @_ZN3nix15ignoreExceptionENS_9VerbosityE(i32 noundef 0)
          to label %17 unwind label %18

17:                                               ; preds = %.body
  invoke void @__cxa_end_catch()
          to label %_ZN3nix11AutoCloseFD5closeEv.exit unwind label %18

_ZN3nix11AutoCloseFD5closeEv.exit:                ; preds = %12, %1, %17
  ret void

18:                                               ; preds = %17, %.body
  %19 = landingpad { ptr, i32 }
          catch ptr null
  %20 = extractvalue { ptr, i32 } %19, 0
  tail call void @__clang_call_terminate(ptr %20) #34
  unreachable
}